target datalayout = "e-m:e-p270:32:32-p271:32:32-p272:64:64-i64:64-i128:128-f80:128-n8:16:32:64-S128"
target triple = "x86_64-pc-linux-gnu"

%"class.libunwind::LocalAddressSpace" = type { i8 }
%"class.libunwind::UnwindCursor" = type <{ %"class.libunwind::AbstractUnwindCursor", ptr, %"class.libunwind::Registers_x86_64", %struct.unw_proc_info_t, i8, i8, [6 x i8] }>
%"class.libunwind::AbstractUnwindCursor" = type { ptr }
%"class.libunwind::Registers_x86_64" = type { %"struct.libunwind::Registers_x86_64::GPRs" }
%"struct.libunwind::Registers_x86_64::GPRs" = type { i64, i64, i64, i64, i64, i64, i64, i64, i64, i64, i64, i64, i64, i64, i64, i64, i64, i64, i64, i64, i64 }
%struct.unw_proc_info_t = type { i64, i64, i64, i64, i64, i64, i32, i32, i64, i64 }

@_ZN9libunwind17LocalAddressSpace17sThisAddressSpaceE = hidden global %"class.libunwind::LocalAddressSpace" zeroinitializer, align 1
@stderr = external global ptr, align 8
@.str = private unnamed_addr constant [52 x i8] c"libunwind: __unw_init_local(cursor=%p, context=%p)\0A\00", align 1
@_ZZ7logAPIsE7checked = internal global i8 0, align 1
@_ZZ7logAPIsE3log = internal global i8 0, align 1
@.str.15 = private unnamed_addr constant [21 x i8] c"LIBUNWIND_PRINT_APIS\00", align 1

; Function Attrs: inlinehint mustprogress nounwind uwtable
define linkonce_odr hidden void @_ZN9libunwind16Registers_x86_64C2EPKv(ptr noundef nonnull align 8 dereferenceable(168) %0, ptr noundef %1) unnamed_addr #5 comdat align 2 {
  %3 = alloca ptr, align 8
  %4 = alloca ptr, align 8
  store ptr %0, ptr %3, align 8, !tbaa !91
  store ptr %1, ptr %4, align 8, !tbaa !50
  %5 = load ptr, ptr %3, align 8
  %6 = getelementptr inbounds nuw %"class.libunwind::Registers_x86_64", ptr %5, i32 0, i32 0
  %7 = load ptr, ptr %4, align 8, !tbaa !50
  call void @llvm.memcpy.p0.p0.i64(ptr align 8 %6, ptr align 1 %7, i64 168, i1 false)
  ret void
}

; Function Attrs: inlinehint mustprogress nounwind uwtable
define linkonce_odr hidden void @_ZN9libunwind20AbstractUnwindCursorC2Ev(ptr noundef nonnull align 8 dereferenceable(8) %0) unnamed_addr #5 comdat align 2 {
  %2 = alloca ptr, align 8
  store ptr %0, ptr %2, align 8, !tbaa !15
  %3 = load ptr, ptr %2, align 8
  store ptr getelementptr inbounds inrange(-16, 120) ({ [17 x ptr] }, ptr @_ZTVN9libunwind20AbstractUnwindCursorE, i32 0, i32 0, i32 2), ptr %3, align 8, !tbaa !17
  ret void
}

; Function Attrs: mustprogress nounwind uwtable
define linkonce_odr hidden void @_ZN9libunwind12UnwindCursorINS_17LocalAddressSpaceENS_16Registers_x86_64EEC2EP13unw_context_tRS1_(ptr noundef nonnull align 8 dereferenceable(258) %0, ptr noundef %1, ptr noundef nonnull align 1 dereferenceable(1) %2) unnamed_addr #0 comdat align 2 {
  %4 = alloca ptr, align 8
  %5 = alloca ptr, align 8
  %6 = alloca ptr, align 8
  store ptr %0, ptr %4, align 8, !tbaa !25
  store ptr %1, ptr %5, align 8, !tbaa !11
  store ptr %2, ptr %6, align 8, !tbaa !27
  %7 = load ptr, ptr %4, align 8
  call void @_ZN9libunwind20AbstractUnwindCursorC2Ev(ptr noundef nonnull align 8 dereferenceable(8) %7) #9
  store ptr getelementptr inbounds inrange(-16, 120) ({ [17 x ptr] }, ptr @_ZTVN9libunwind12UnwindCursorINS_17LocalAddressSpaceENS_16Registers_x86_64EEE, i32 0, i32 0, i32 2), ptr %7, align 8, !tbaa !17
  %8 = getelementptr inbounds nuw %"class.libunwind::UnwindCursor", ptr %7, i32 0, i32 1
  %9 = load ptr, ptr %6, align 8, !tbaa !27
  store ptr %9, ptr %8, align 8, !tbaa !27
  %10 = getelementptr inbounds nuw %"class.libunwind::UnwindCursor", ptr %7, i32 0, i32 2
  %11 = load ptr, ptr %5, align 8, !tbaa !11
  call void @_ZN9libunwind16Registers_x86_64C2EPKv(ptr noundef nonnull align 8 dereferenceable(168) %10, ptr noundef %11)
  %12 = getelementptr inbounds nuw %"class.libunwind::UnwindCursor", ptr %7, i32 0, i32 4
  store i8 0, ptr %12, align 8, !tbaa !29
  %13 = getelementptr inbounds nuw %"class.libunwind::UnwindCursor", ptr %7, i32 0, i32 5
  store i8 0, ptr %13, align 1, !tbaa !36
  %14 = getelementptr inbounds nuw %"class.libunwind::UnwindCursor", ptr %7, i32 0, i32 3
  call void @llvm.memset.p0.i64(ptr align 8 %14, i8 0, i64 72, i1 false)
  ret void
}

; Function Attrs: mustprogress nounwind uwtable
define linkonce_odr hidden noundef ptr @_ZN9libunwind12UnwindCursorINS_17LocalAddressSpaceENS_16Registers_x86_64EEnwEmPS3_(i64 noundef %0, ptr noundef %1) #0 comdat align 2 {
  %3 = alloca i64, align 8
  %4 = alloca ptr, align 8
  store i64 %0, ptr %3, align 8, !tbaa !23
  store ptr %1, ptr %4, align 8, !tbaa !25
  %5 = load ptr, ptr %4, align 8, !tbaa !25
  ret ptr %5
}

; Function Attrs: mustprogress nounwind uwtable
define hidden zeroext i1 @logAPIs() #0 {
  %1 = load i8, ptr @_ZZ7logAPIsE7checked, align 1, !tbaa !19, !range !21, !noundef !22
  %2 = trunc i8 %1 to i1
  br i1 %2, label %7, label %3

3:                                                ; preds = %0
  %4 = call ptr @getenv(ptr noundef @.str.15) #9
  %5 = icmp ne ptr %4, null
  %6 = zext i1 %5 to i8
  store i8 %6, ptr @_ZZ7logAPIsE3log, align 1, !tbaa !19
  store i8 1, ptr @_ZZ7logAPIsE7checked, align 1, !tbaa !19
  br label %7

7:                                                ; preds = %3, %0
  %8 = load i8, ptr @_ZZ7logAPIsE3log, align 1, !tbaa !19, !range !21, !noundef !22
  %9 = trunc i8 %8 to i1
  ret i1 %9
}

; Function Attrs: mustprogress nounwind uwtable
define hidden i32 @__unw_init_local(ptr noundef %0, ptr noundef %1) #0 {
  %3 = alloca ptr, align 8
  %4 = alloca ptr, align 8
  %5 = alloca ptr, align 8
  store ptr %0, ptr %3, align 8, !tbaa !6
  store ptr %1, ptr %4, align 8, !tbaa !11
  br label %6

6:                                                ; preds = %2
  %7 = call zeroext i1 @logAPIs()
  br i1 %7, label %8, label %17

8:                                                ; preds = %6
  br label %9

9:                                                ; preds = %8
  %10 = load ptr, ptr @stderr, align 8, !tbaa !13
  %11 = load ptr, ptr %3, align 8, !tbaa !6
  %12 = load ptr, ptr %4, align 8, !tbaa !11
  %13 = call i32 (ptr, ptr, ...) @fprintf(ptr noundef %10, ptr noundef @.str, ptr noundef %11, ptr noundef %12) #9
  %14 = load ptr, ptr @stderr, align 8, !tbaa !13
  %15 = call i32 @fflush(ptr noundef %14)
  br label %16

16:                                               ; preds = %9
  br label %17

17:                                               ; preds = %16, %6
  br label %18

18:                                               ; preds = %17
  %19 = load ptr, ptr %3, align 8, !tbaa !6
  %20 = call noundef ptr @_ZN9libunwind12UnwindCursorINS_17LocalAddressSpaceENS_16Registers_x86_64EEnwEmPS3_(i64 noundef 264, ptr noundef %19)
  %21 = load ptr, ptr %4, align 8, !tbaa !11
  call void @_ZN9libunwind12UnwindCursorINS_17LocalAddressSpaceENS_16Registers_x86_64EEC2EP13unw_context_tRS1_(ptr noundef nonnull align 8 dereferenceable(258) %20, ptr noundef %21, ptr noundef nonnull align 1 dereferenceable(1) @_ZN9libunwind17LocalAddressSpace17sThisAddressSpaceE)
  call void @llvm.lifetime.start.p0(i64 8, ptr %5) #9
  %22 = load ptr, ptr %3, align 8, !tbaa !6
  store ptr %22, ptr %5, align 8, !tbaa !15
  %23 = load ptr, ptr %5, align 8, !tbaa !15
  %24 = load ptr, ptr %23, align 8, !tbaa !17
  %25 = getelementptr inbounds ptr, ptr %24, i64 13
  %26 = load ptr, ptr %25, align 8
  call void %26(ptr noundef nonnull align 8 dereferenceable(8) %23, i1 noundef zeroext false)
  call void @llvm.lifetime.end.p0(i64 8, ptr %5) #9
  ret i32 0
}