; Function Attrs: mustprogress nounwind uwtable
define hidden noundef i32 @__unw_init_local(ptr noundef %0, ptr noundef %1) #0 {
  %.b1.i = load i1, ptr @_ZZ7logAPIsE7checked, align 1
  br i1 %.b1.i, label %._crit_edge.i, label %logAPIs.exit

._crit_edge.i:                                    ; preds = %2
  %.pre.i = load i8, ptr @_ZZ7logAPIsE3log, align 1, !tbaa !6, !range !10
  %3 = trunc nuw i8 %.pre.i to i1
  br i1 %3, label %7, label %12

logAPIs.exit:                                     ; preds = %2
  %4 = tail call ptr @getenv(ptr noundef nonnull @.str.15) #15
  %5 = icmp ne ptr %4, null
  %6 = zext i1 %5 to i8
  store i8 %6, ptr @_ZZ7logAPIsE3log, align 1, !tbaa !6
  store i1 true, ptr @_ZZ7logAPIsE7checked, align 1
  br i1 %5, label %7, label %12

7:                                                ; preds = %._crit_edge.i, %logAPIs.exit
  %8 = load ptr, ptr @stderr, align 8, !tbaa !11
  %9 = tail call i32 (ptr, ptr, ...) @fprintf(ptr noundef %8, ptr noundef nonnull @.str, ptr noundef %0, ptr noundef %1) #16
  %10 = load ptr, ptr @stderr, align 8, !tbaa !11
  %11 = tail call i32 @fflush(ptr noundef %10)
  br label %12

12:                                               ; preds = %._crit_edge.i, %logAPIs.exit, %7
  store ptr getelementptr inbounds nuw inrange(-16, 120) (i8, ptr @_ZTVN9libunwind12UnwindCursorINS_17LocalAddressSpaceENS_16Registers_x86_64EEE, i64 16), ptr %0, align 8, !tbaa !14
  %13 = getelementptr inbounds nuw i8, ptr %0, i64 8
  store ptr @_ZN9libunwind17LocalAddressSpace17sThisAddressSpaceE, ptr %13, align 8, !tbaa !16
  %14 = getelementptr inbounds nuw i8, ptr %0, i64 16
  tail call void @llvm.memcpy.p0.p0.i64(ptr noundef nonnull align 8 dereferenceable(168) %14, ptr noundef nonnull align 1 dereferenceable(168) %1, i64 168, i1 false)
  %15 = getelementptr inbounds nuw i8, ptr %0, i64 184
  tail call void @llvm.memset.p0.i64(ptr noundef nonnull align 8 dereferenceable(74) %15, i8 0, i64 74, i1 false)
  tail call void @_ZN9libunwind12UnwindCursorINS_17LocalAddressSpaceENS_16Registers_x86_64EE24setInfoBasedOnIPRegisterEb(ptr noundef nonnull align 8 dereferenceable(8) %0, i1 noundef zeroext false) #15
  ret i32 0
}